; ModuleID = 'source-C-CXX/59/695.c'
source_filename = "source-C-CXX/59/695.c"
target datalayout = "e-m:e-p270:32:32-p271:32:32-p272:64:64-i64:64-f80:128-n8:16:32:64-S128"
target triple = "x86_64-pc-linux-gnu"

@.str = private unnamed_addr constant [3 x i8] c"%d\00", align 1
@.str.1 = private unnamed_addr constant [6 x i8] c"empty\00", align 1
@.str.2 = private unnamed_addr constant [7 x i8] c"%d %d\0A\00", align 1

; Function Attrs: nofree nounwind sspstrong uwtable
define dso_local i32 @main() local_unnamed_addr #0 {
  %1 = alloca i32, align 4
  %2 = alloca [10000 x i32], align 16
  %3 = bitcast i32* %1 to i8*
  call void @llvm.lifetime.start.p0i8(i64 4, i8* nonnull %3) #4
  %4 = bitcast [10000 x i32]* %2 to i8*
  call void @llvm.lifetime.start.p0i8(i64 40000, i8* nonnull %4) #4
  %5 = call i32 (i8*, ...) @__isoc99_scanf(i8* getelementptr inbounds ([3 x i8], [3 x i8]* @.str, i64 0, i64 0), i32* nonnull %1)
  %6 = load i32, i32* %1, align 4, !tbaa !5
  %7 = icmp slt i32 %6, 3
  br i1 %7, label %40, label %8

8:                                                ; preds = %0, %26
  %9 = phi i32 [ %27, %26 ], [ 0, %0 ]
  %10 = phi i32 [ %28, %26 ], [ 3, %0 ]
  %11 = sitofp i32 %10 to double
  %12 = call double @sqrt(double %11) #4
  %13 = fptosi double %12 to i32
  %14 = icmp slt i32 %13, 2
  br i1 %14, label %22, label %18

15:                                               ; preds = %18
  %16 = add nuw i32 %19, 1
  %17 = icmp eq i32 %19, %13
  br i1 %17, label %22, label %18, !llvm.loop !9

18:                                               ; preds = %8, %15
  %19 = phi i32 [ %16, %15 ], [ 2, %8 ]
  %20 = urem i32 %10, %19
  %21 = icmp eq i32 %20, 0
  br i1 %21, label %26, label %15

22:                                               ; preds = %15, %8
  %23 = sext i32 %9 to i64
  %24 = getelementptr inbounds [10000 x i32], [10000 x i32]* %2, i64 0, i64 %23
  store i32 %10, i32* %24, align 4, !tbaa !5
  %25 = add nsw i32 %9, 1
  br label %26

26:                                               ; preds = %18, %22
  %27 = phi i32 [ %25, %22 ], [ %9, %18 ]
  %28 = add nuw nsw i32 %10, 2
  %29 = load i32, i32* %1, align 4, !tbaa !5
  %30 = icmp sgt i32 %28, %29
  br i1 %30, label %31, label %8, !llvm.loop !11

31:                                               ; preds = %26
  %32 = icmp slt i32 %29, 5
  br i1 %32, label %40, label %33

33:                                               ; preds = %31
  %34 = icmp sgt i32 %27, 1
  br i1 %34, label %35, label %54

35:                                               ; preds = %33
  %36 = add nsw i32 %27, -1
  %37 = zext i32 %36 to i64
  %38 = getelementptr inbounds [10000 x i32], [10000 x i32]* %2, i64 0, i64 0
  %39 = load i32, i32* %38, align 16, !tbaa !5
  br label %42

40:                                               ; preds = %0, %31
  %41 = call i32 (i8*, ...) @printf(i8* nonnull dereferenceable(1) getelementptr inbounds ([6 x i8], [6 x i8]* @.str.1, i64 0, i64 0))
  br label %54

42:                                               ; preds = %35, %52
  %43 = phi i32 [ %39, %35 ], [ %47, %52 ]
  %44 = phi i64 [ 0, %35 ], [ %45, %52 ]
  %45 = add nuw nsw i64 %44, 1
  %46 = getelementptr inbounds [10000 x i32], [10000 x i32]* %2, i64 0, i64 %45
  %47 = load i32, i32* %46, align 4, !tbaa !5
  %48 = add nsw i32 %43, 2
  %49 = icmp eq i32 %47, %48
  br i1 %49, label %50, label %52

50:                                               ; preds = %42
  %51 = call i32 (i8*, ...) @printf(i8* nonnull dereferenceable(1) getelementptr inbounds ([7 x i8], [7 x i8]* @.str.2, i64 0, i64 0), i32 %43, i32 %47)
  br label %52

52:                                               ; preds = %42, %50
  %53 = icmp eq i64 %45, %37
  br i1 %53, label %54, label %42, !llvm.loop !12

54:                                               ; preds = %52, %33, %40
  call void @llvm.lifetime.end.p0i8(i64 40000, i8* nonnull %4) #4
  call void @llvm.lifetime.end.p0i8(i64 4, i8* nonnull %3) #4
  ret i32 0
}

; Function Attrs: argmemonly mustprogress nofree nosync nounwind willreturn
declare void @llvm.lifetime.start.p0i8(i64 immarg, i8* nocapture) #1

; Function Attrs: nofree nounwind
declare noundef i32 @__isoc99_scanf(i8* nocapture noundef readonly, ...) local_unnamed_addr #2

; Function Attrs: mustprogress nofree nounwind willreturn
declare double @sqrt(double) local_unnamed_addr #3

; Function Attrs: nofree nounwind
declare noundef i32 @printf(i8* nocapture noundef readonly, ...) local_unnamed_addr #2

; Function Attrs: argmemonly mustprogress nofree nosync nounwind willreturn
declare void @llvm.lifetime.end.p0i8(i64 immarg, i8* nocapture) #1


!llvm.module.flags = !{!0, !1, !2, !3}
!llvm.ident = !{!4}

!0 = !{i32 1, !"wchar_size", i32 4}
!1 = !{i32 7, !"PIC Level", i32 2}
!2 = !{i32 7, !"PIE Level", i32 2}
!3 = !{i32 7, !"uwtable", i32 1}
!4 = !{!"clang version 13.0.0"}
!5 = !{!6, !6, i64 0}
!6 = !{!"int", !7, i64 0}
!7 = !{!"omnipotent char", !8, i64 0}
!8 = !{!"Simple C/C++ TBAA"}
!9 = distinct !{!9, !10}
!10 = !{!"llvm.loop.mustprogress"}
!11 = distinct !{!11, !10}
!12 = distinct !{!12, !10}
